target datalayout = "e-m:e-p270:32:32-p271:32:32-p272:64:64-i64:64-i128:128-f80:128-n8:16:32:64-S128"
target triple = "x86_64-pc-linux-gnu"

%struct.DdNode = type { i32, i32, ptr, %union.anon, i64 }
%union.anon = type { %struct.DdChildren }
%struct.DdChildren = type { ptr, ptr }
%struct.DdManager = type { %struct.DdNode, ptr, ptr, ptr, ptr, ptr, ptr, ptr, i32, i32, double, double, double, i32, i32, i32, i32, i32, i32, ptr, ptr, %struct.DdSubtable, i32, i32, i32, i32, i32, i32, i32, double, i32, i32, i32, ptr, i64, double, i32, ptr, ptr, ptr, ptr, ptr, ptr, ptr, i32, ptr, ptr, ptr, ptr, ptr, ptr, i32, i32, i32, double, i32, i32, i32, i32, double, double, i32, i32, i32, i32, i32, i32, i32, i32, i32, ptr, ptr, i32, i32, i32, i32, i32, i32, ptr, ptr, ptr, ptr, ptr, ptr, ptr, ptr, i32, i64, i64, i64, i32, i64, i64, double, double, double, double, double, double, i32, ptr, ptr, i64 }
%struct.DdSubtable = type { ptr, i32, i32, i32, i32, i32, i32, i32, i32, i32, i32, i32 }

; Function Attrs: nounwind uwtable
define i32 @Cudd_EquivDC(ptr noundef %0, ptr noundef %1, ptr noundef %2, ptr noundef %3) #0 {
  %5 = alloca i32, align 4
  %6 = alloca ptr, align 8
  %7 = alloca ptr, align 8
  %8 = alloca ptr, align 8
  %9 = alloca ptr, align 8
  %10 = alloca ptr, align 8
  %11 = alloca ptr, align 8
  %12 = alloca ptr, align 8
  %13 = alloca ptr, align 8
  %14 = alloca ptr, align 8
  %15 = alloca ptr, align 8
  %16 = alloca ptr, align 8
  %17 = alloca ptr, align 8
  %18 = alloca ptr, align 8
  %19 = alloca ptr, align 8
  %20 = alloca i32, align 4
  %21 = alloca i32, align 4
  %22 = alloca i32, align 4
  %23 = alloca i32, align 4
  %24 = alloca i32, align 4
  %25 = alloca i32, align 4
  store ptr %0, ptr %6, align 8, !tbaa !3
  store ptr %1, ptr %7, align 8, !tbaa !8
  store ptr %2, ptr %8, align 8, !tbaa !8
  store ptr %3, ptr %9, align 8, !tbaa !8
  call void @llvm.lifetime.start.p0(i64 8, ptr %10) #6
  call void @llvm.lifetime.start.p0(i64 8, ptr %11) #6
  call void @llvm.lifetime.start.p0(i64 8, ptr %12) #6
  call void @llvm.lifetime.start.p0(i64 8, ptr %13) #6
  call void @llvm.lifetime.start.p0(i64 8, ptr %14) #6
  call void @llvm.lifetime.start.p0(i64 8, ptr %15) #6
  call void @llvm.lifetime.start.p0(i64 8, ptr %16) #6
  call void @llvm.lifetime.start.p0(i64 8, ptr %17) #6
  call void @llvm.lifetime.start.p0(i64 8, ptr %18) #6
  call void @llvm.lifetime.start.p0(i64 8, ptr %19) #6
  call void @llvm.lifetime.start.p0(i64 4, ptr %20) #6
  call void @llvm.lifetime.start.p0(i64 4, ptr %21) #6
  call void @llvm.lifetime.start.p0(i64 4, ptr %22) #6
  call void @llvm.lifetime.start.p0(i64 4, ptr %23) #6
  call void @llvm.lifetime.start.p0(i64 4, ptr %24) #6
  %26 = load ptr, ptr %6, align 8, !tbaa !3
  %27 = getelementptr inbounds nuw %struct.DdManager, ptr %26, i32 0, i32 1
  %28 = load ptr, ptr %27, align 8, !tbaa !20
  store ptr %28, ptr %11, align 8, !tbaa !8
  %29 = load ptr, ptr %9, align 8, !tbaa !8
  %30 = load ptr, ptr %11, align 8, !tbaa !8
  %31 = icmp eq ptr %29, %30
  br i1 %31, label %36, label %32

32:                                               ; preds = %4
  %33 = load ptr, ptr %7, align 8, !tbaa !8
  %34 = load ptr, ptr %8, align 8, !tbaa !8
  %35 = icmp eq ptr %33, %34
  br i1 %35, label %36, label %37

36:                                               ; preds = %32, %4
  store i32 1, ptr %5, align 4
  store i32 1, ptr %25, align 4
  br label %271

37:                                               ; preds = %32
  %38 = load ptr, ptr %9, align 8, !tbaa !8
  %39 = load ptr, ptr %11, align 8, !tbaa !8
  %40 = ptrtoint ptr %39 to i64
  %41 = xor i64 %40, 1
  %42 = inttoptr i64 %41 to ptr
  %43 = icmp eq ptr %38, %42
  br i1 %43, label %57, label %44

44:                                               ; preds = %37
  %45 = load ptr, ptr %9, align 8, !tbaa !8
  %46 = load ptr, ptr %6, align 8, !tbaa !3
  %47 = getelementptr inbounds nuw %struct.DdManager, ptr %46, i32 0, i32 2
  %48 = load ptr, ptr %47, align 8, !tbaa !33
  %49 = icmp eq ptr %45, %48
  br i1 %49, label %57, label %50

50:                                               ; preds = %44
  %51 = load ptr, ptr %7, align 8, !tbaa !8
  %52 = load ptr, ptr %8, align 8, !tbaa !8
  %53 = ptrtoint ptr %52 to i64
  %54 = xor i64 %53, 1
  %55 = inttoptr i64 %54 to ptr
  %56 = icmp eq ptr %51, %55
  br i1 %56, label %57, label %58

57:                                               ; preds = %50, %44, %37
  store i32 0, ptr %5, align 4
  store i32 1, ptr %25, align 4
  br label %271

58:                                               ; preds = %50
  %59 = load ptr, ptr %7, align 8, !tbaa !8
  %60 = load ptr, ptr %8, align 8, !tbaa !8
  %61 = icmp ugt ptr %59, %60
  br i1 %61, label %62, label %66

62:                                               ; preds = %58
  %63 = load ptr, ptr %7, align 8, !tbaa !8
  store ptr %63, ptr %10, align 8, !tbaa !8
  %64 = load ptr, ptr %8, align 8, !tbaa !8
  store ptr %64, ptr %7, align 8, !tbaa !8
  %65 = load ptr, ptr %10, align 8, !tbaa !8
  store ptr %65, ptr %8, align 8, !tbaa !8
  br label %66

66:                                               ; preds = %62, %58
  %67 = load ptr, ptr %7, align 8, !tbaa !8
  %68 = ptrtoint ptr %67 to i64
  %69 = and i64 %68, 1
  %70 = trunc i64 %69 to i32
  %71 = icmp ne i32 %70, 0
  br i1 %71, label %72, label %81

72:                                               ; preds = %66
  %73 = load ptr, ptr %7, align 8, !tbaa !8
  %74 = ptrtoint ptr %73 to i64
  %75 = xor i64 %74, 1
  %76 = inttoptr i64 %75 to ptr
  store ptr %76, ptr %7, align 8, !tbaa !8
  %77 = load ptr, ptr %8, align 8, !tbaa !8
  %78 = ptrtoint ptr %77 to i64
  %79 = xor i64 %78, 1
  %80 = inttoptr i64 %79 to ptr
  store ptr %80, ptr %8, align 8, !tbaa !8
  br label %81

81:                                               ; preds = %72, %66
  %82 = load ptr, ptr %6, align 8, !tbaa !3
  %83 = load ptr, ptr %7, align 8, !tbaa !8
  %84 = load ptr, ptr %8, align 8, !tbaa !8
  %85 = load ptr, ptr %9, align 8, !tbaa !8
  %86 = call ptr @cuddCacheLookup(ptr noundef %82, i64 noundef 74, ptr noundef %83, ptr noundef %84, ptr noundef %85)
  store ptr %86, ptr %10, align 8, !tbaa !8
  %87 = load ptr, ptr %10, align 8, !tbaa !8
  %88 = icmp ne ptr %87, null
  br i1 %88, label %89, label %94

89:                                               ; preds = %81
  %90 = load ptr, ptr %10, align 8, !tbaa !8
  %91 = load ptr, ptr %11, align 8, !tbaa !8
  %92 = icmp eq ptr %90, %91
  %93 = zext i1 %92 to i32
  store i32 %93, ptr %5, align 4
  store i32 1, ptr %25, align 4
  br label %271

94:                                               ; preds = %81
  %95 = load ptr, ptr %7, align 8, !tbaa !8
  %96 = getelementptr inbounds nuw %struct.DdNode, ptr %95, i32 0, i32 0
  %97 = load i32, ptr %96, align 8, !tbaa !14
  %98 = icmp eq i32 %97, 2147483647
  br i1 %98, label %99, label %103

99:                                               ; preds = %94
  %100 = load ptr, ptr %7, align 8, !tbaa !8
  %101 = getelementptr inbounds nuw %struct.DdNode, ptr %100, i32 0, i32 0
  %102 = load i32, ptr %101, align 8, !tbaa !14
  br label %113

103:                                              ; preds = %94
  %104 = load ptr, ptr %6, align 8, !tbaa !3
  %105 = getelementptr inbounds nuw %struct.DdManager, ptr %104, i32 0, i32 37
  %106 = load ptr, ptr %105, align 8, !tbaa !54
  %107 = load ptr, ptr %7, align 8, !tbaa !8
  %108 = getelementptr inbounds nuw %struct.DdNode, ptr %107, i32 0, i32 0
  %109 = load i32, ptr %108, align 8, !tbaa !14
  %110 = zext i32 %109 to i64
  %111 = getelementptr inbounds nuw i32, ptr %106, i64 %110
  %112 = load i32, ptr %111, align 4, !tbaa !12
  br label %113

113:                                              ; preds = %103, %99
  %114 = phi i32 [ %102, %99 ], [ %112, %103 ]
  store i32 %114, ptr %21, align 4, !tbaa !12
  %115 = load ptr, ptr %8, align 8, !tbaa !8
  %116 = ptrtoint ptr %115 to i64
  %117 = and i64 %116, -2
  %118 = inttoptr i64 %117 to ptr
  store ptr %118, ptr %12, align 8, !tbaa !8
  %119 = load ptr, ptr %12, align 8, !tbaa !8
  %120 = getelementptr inbounds nuw %struct.DdNode, ptr %119, i32 0, i32 0
  %121 = load i32, ptr %120, align 8, !tbaa !14
  %122 = icmp eq i32 %121, 2147483647
  br i1 %122, label %123, label %127

123:                                              ; preds = %113
  %124 = load ptr, ptr %12, align 8, !tbaa !8
  %125 = getelementptr inbounds nuw %struct.DdNode, ptr %124, i32 0, i32 0
  %126 = load i32, ptr %125, align 8, !tbaa !14
  br label %137

127:                                              ; preds = %113
  %128 = load ptr, ptr %6, align 8, !tbaa !3
  %129 = getelementptr inbounds nuw %struct.DdManager, ptr %128, i32 0, i32 37
  %130 = load ptr, ptr %129, align 8, !tbaa !54
  %131 = load ptr, ptr %12, align 8, !tbaa !8
  %132 = getelementptr inbounds nuw %struct.DdNode, ptr %131, i32 0, i32 0
  %133 = load i32, ptr %132, align 8, !tbaa !14
  %134 = zext i32 %133 to i64
  %135 = getelementptr inbounds nuw i32, ptr %130, i64 %134
  %136 = load i32, ptr %135, align 4, !tbaa !12
  br label %137

137:                                              ; preds = %127, %123
  %138 = phi i32 [ %126, %123 ], [ %136, %127 ]
  store i32 %138, ptr %22, align 4, !tbaa !12
  %139 = load i32, ptr %22, align 4, !tbaa !12
  %140 = load i32, ptr %21, align 4, !tbaa !12
  %141 = icmp ult i32 %139, %140
  br i1 %141, label %142, label %144

142:                                              ; preds = %137
  %143 = load i32, ptr %22, align 4, !tbaa !12
  br label %146

144:                                              ; preds = %137
  %145 = load i32, ptr %21, align 4, !tbaa !12
  br label %146

146:                                              ; preds = %144, %142
  %147 = phi i32 [ %143, %142 ], [ %145, %144 ]
  store i32 %147, ptr %24, align 4, !tbaa !12
  %148 = load ptr, ptr %9, align 8, !tbaa !8
  %149 = ptrtoint ptr %148 to i64
  %150 = and i64 %149, -2
  %151 = inttoptr i64 %150 to ptr
  store ptr %151, ptr %13, align 8, !tbaa !8
  %152 = load ptr, ptr %6, align 8, !tbaa !3
  %153 = getelementptr inbounds nuw %struct.DdManager, ptr %152, i32 0, i32 37
  %154 = load ptr, ptr %153, align 8, !tbaa !54
  %155 = load ptr, ptr %13, align 8, !tbaa !8
  %156 = getelementptr inbounds nuw %struct.DdNode, ptr %155, i32 0, i32 0
  %157 = load i32, ptr %156, align 8, !tbaa !14
  %158 = zext i32 %157 to i64
  %159 = getelementptr inbounds nuw i32, ptr %154, i64 %158
  %160 = load i32, ptr %159, align 4, !tbaa !12
  store i32 %160, ptr %23, align 4, !tbaa !12
  %161 = load i32, ptr %23, align 4, !tbaa !12
  %162 = load i32, ptr %24, align 4, !tbaa !12
  %163 = icmp ult i32 %161, %162
  br i1 %163, label %164, label %166

164:                                              ; preds = %146
  %165 = load i32, ptr %23, align 4, !tbaa !12
  br label %168

166:                                              ; preds = %146
  %167 = load i32, ptr %24, align 4, !tbaa !12
  br label %168

168:                                              ; preds = %166, %164
  %169 = phi i32 [ %165, %164 ], [ %167, %166 ]
  store i32 %169, ptr %24, align 4, !tbaa !12
  %170 = load i32, ptr %24, align 4, !tbaa !12
  %171 = load i32, ptr %21, align 4, !tbaa !12
  %172 = icmp eq i32 %170, %171
  br i1 %172, label %173, label %182

173:                                              ; preds = %168
  %174 = load ptr, ptr %7, align 8, !tbaa !8
  %175 = getelementptr inbounds nuw %struct.DdNode, ptr %174, i32 0, i32 3
  %176 = getelementptr inbounds nuw %struct.DdChildren, ptr %175, i32 0, i32 0
  %177 = load ptr, ptr %176, align 8, !tbaa !17
  store ptr %177, ptr %14, align 8, !tbaa !8
  %178 = load ptr, ptr %7, align 8, !tbaa !8
  %179 = getelementptr inbounds nuw %struct.DdNode, ptr %178, i32 0, i32 3
  %180 = getelementptr inbounds nuw %struct.DdChildren, ptr %179, i32 0, i32 1
  %181 = load ptr, ptr %180, align 8, !tbaa !17
  store ptr %181, ptr %15, align 8, !tbaa !8
  br label %184

182:                                              ; preds = %168
  %183 = load ptr, ptr %7, align 8, !tbaa !8
  store ptr %183, ptr %15, align 8, !tbaa !8
  store ptr %183, ptr %14, align 8, !tbaa !8
  br label %184

184:                                              ; preds = %182, %173
  %185 = load i32, ptr %24, align 4, !tbaa !12
  %186 = load i32, ptr %22, align 4, !tbaa !12
  %187 = icmp eq i32 %185, %186
  br i1 %187, label %188, label %210

188:                                              ; preds = %184
  %189 = load ptr, ptr %12, align 8, !tbaa !8
  %190 = getelementptr inbounds nuw %struct.DdNode, ptr %189, i32 0, i32 3
  %191 = getelementptr inbounds nuw %struct.DdChildren, ptr %190, i32 0, i32 0
  %192 = load ptr, ptr %191, align 8, !tbaa !17
  store ptr %192, ptr %16, align 8, !tbaa !8
  %193 = load ptr, ptr %12, align 8, !tbaa !8
  %194 = getelementptr inbounds nuw %struct.DdNode, ptr %193, i32 0, i32 3
  %195 = getelementptr inbounds nuw %struct.DdChildren, ptr %194, i32 0, i32 1
  %196 = load ptr, ptr %195, align 8, !tbaa !17
  store ptr %196, ptr %17, align 8, !tbaa !8
  %197 = load ptr, ptr %8, align 8, !tbaa !8
  %198 = load ptr, ptr %12, align 8, !tbaa !8
  %199 = icmp ne ptr %197, %198
  br i1 %199, label %200, label %209

200:                                              ; preds = %188
  %201 = load ptr, ptr %16, align 8, !tbaa !8
  %202 = ptrtoint ptr %201 to i64
  %203 = xor i64 %202, 1
  %204 = inttoptr i64 %203 to ptr
  store ptr %204, ptr %16, align 8, !tbaa !8
  %205 = load ptr, ptr %17, align 8, !tbaa !8
  %206 = ptrtoint ptr %205 to i64
  %207 = xor i64 %206, 1
  %208 = inttoptr i64 %207 to ptr
  store ptr %208, ptr %17, align 8, !tbaa !8
  br label %209

209:                                              ; preds = %200, %188
  br label %212

210:                                              ; preds = %184
  %211 = load ptr, ptr %8, align 8, !tbaa !8
  store ptr %211, ptr %17, align 8, !tbaa !8
  store ptr %211, ptr %16, align 8, !tbaa !8
  br label %212

212:                                              ; preds = %210, %209
  %213 = load i32, ptr %24, align 4, !tbaa !12
  %214 = load i32, ptr %23, align 4, !tbaa !12
  %215 = icmp eq i32 %213, %214
  br i1 %215, label %216, label %238

216:                                              ; preds = %212
  %217 = load ptr, ptr %13, align 8, !tbaa !8
  %218 = getelementptr inbounds nuw %struct.DdNode, ptr %217, i32 0, i32 3
  %219 = getelementptr inbounds nuw %struct.DdChildren, ptr %218, i32 0, i32 0
  %220 = load ptr, ptr %219, align 8, !tbaa !17
  store ptr %220, ptr %18, align 8, !tbaa !8
  %221 = load ptr, ptr %13, align 8, !tbaa !8
  %222 = getelementptr inbounds nuw %struct.DdNode, ptr %221, i32 0, i32 3
  %223 = getelementptr inbounds nuw %struct.DdChildren, ptr %222, i32 0, i32 1
  %224 = load ptr, ptr %223, align 8, !tbaa !17
  store ptr %224, ptr %19, align 8, !tbaa !8
  %225 = load ptr, ptr %9, align 8, !tbaa !8
  %226 = load ptr, ptr %13, align 8, !tbaa !8
  %227 = icmp ne ptr %225, %226
  br i1 %227, label %228, label %237

228:                                              ; preds = %216
  %229 = load ptr, ptr %18, align 8, !tbaa !8
  %230 = ptrtoint ptr %229 to i64
  %231 = xor i64 %230, 1
  %232 = inttoptr i64 %231 to ptr
  store ptr %232, ptr %18, align 8, !tbaa !8
  %233 = load ptr, ptr %19, align 8, !tbaa !8
  %234 = ptrtoint ptr %233 to i64
  %235 = xor i64 %234, 1
  %236 = inttoptr i64 %235 to ptr
  store ptr %236, ptr %19, align 8, !tbaa !8
  br label %237

237:                                              ; preds = %228, %216
  br label %240

238:                                              ; preds = %212
  %239 = load ptr, ptr %9, align 8, !tbaa !8
  store ptr %239, ptr %19, align 8, !tbaa !8
  store ptr %239, ptr %18, align 8, !tbaa !8
  br label %240

240:                                              ; preds = %238, %237
  %241 = load ptr, ptr %6, align 8, !tbaa !3
  %242 = load ptr, ptr %14, align 8, !tbaa !8
  %243 = load ptr, ptr %16, align 8, !tbaa !8
  %244 = load ptr, ptr %18, align 8, !tbaa !8
  %245 = call i32 @Cudd_EquivDC(ptr noundef %241, ptr noundef %242, ptr noundef %243, ptr noundef %244)
  store i32 %245, ptr %20, align 4, !tbaa !12
  %246 = load i32, ptr %20, align 4, !tbaa !12
  %247 = icmp ne i32 %246, 0
  br i1 %247, label %248, label %254

248:                                              ; preds = %240
  %249 = load ptr, ptr %6, align 8, !tbaa !3
  %250 = load ptr, ptr %15, align 8, !tbaa !8
  %251 = load ptr, ptr %17, align 8, !tbaa !8
  %252 = load ptr, ptr %19, align 8, !tbaa !8
  %253 = call i32 @Cudd_EquivDC(ptr noundef %249, ptr noundef %250, ptr noundef %251, ptr noundef %252)
  store i32 %253, ptr %20, align 4, !tbaa !12
  br label %254

254:                                              ; preds = %248, %240
  %255 = load ptr, ptr %6, align 8, !tbaa !3
  %256 = load ptr, ptr %7, align 8, !tbaa !8
  %257 = load ptr, ptr %8, align 8, !tbaa !8
  %258 = load ptr, ptr %9, align 8, !tbaa !8
  %259 = load i32, ptr %20, align 4, !tbaa !12
  %260 = icmp ne i32 %259, 0
  br i1 %260, label %261, label %263

261:                                              ; preds = %254
  %262 = load ptr, ptr %11, align 8, !tbaa !8
  br label %268

263:                                              ; preds = %254
  %264 = load ptr, ptr %11, align 8, !tbaa !8
  %265 = ptrtoint ptr %264 to i64
  %266 = xor i64 %265, 1
  %267 = inttoptr i64 %266 to ptr
  br label %268

268:                                              ; preds = %263, %261
  %269 = phi ptr [ %262, %261 ], [ %267, %263 ]
  call void @cuddCacheInsert(ptr noundef %255, i64 noundef 74, ptr noundef %256, ptr noundef %257, ptr noundef %258, ptr noundef %269)
  %270 = load i32, ptr %20, align 4, !tbaa !12
  store i32 %270, ptr %5, align 4
  store i32 1, ptr %25, align 4
  br label %271

271:                                              ; preds = %268, %89, %57, %36
  call void @llvm.lifetime.end.p0(i64 4, ptr %24) #6
  call void @llvm.lifetime.end.p0(i64 4, ptr %23) #6
  call void @llvm.lifetime.end.p0(i64 4, ptr %22) #6
  call void @llvm.lifetime.end.p0(i64 4, ptr %21) #6
  call void @llvm.lifetime.end.p0(i64 4, ptr %20) #6
  call void @llvm.lifetime.end.p0(i64 8, ptr %19) #6
  call void @llvm.lifetime.end.p0(i64 8, ptr %18) #6
  call void @llvm.lifetime.end.p0(i64 8, ptr %17) #6
  call void @llvm.lifetime.end.p0(i64 8, ptr %16) #6
  call void @llvm.lifetime.end.p0(i64 8, ptr %15) #6
  call void @llvm.lifetime.end.p0(i64 8, ptr %14) #6
  call void @llvm.lifetime.end.p0(i64 8, ptr %13) #6
  call void @llvm.lifetime.end.p0(i64 8, ptr %12) #6
  call void @llvm.lifetime.end.p0(i64 8, ptr %11) #6
  call void @llvm.lifetime.end.p0(i64 8, ptr %10) #6
  %272 = load i32, ptr %5, align 4
  ret i32 %272
}