; Function Attrs: nounwind uwtable
define range(i32 0, 2) i32 @Cudd_EquivDC(ptr noundef %0, ptr noundef %1, ptr noundef %2, ptr noundef %3) local_unnamed_addr #2 {
  %5 = getelementptr inbounds nuw i8, ptr %0, i64 40
  %6 = load ptr, ptr %5, align 8, !tbaa !15
  %7 = icmp eq ptr %3, %6
  %8 = icmp eq ptr %1, %2
  %or.cond = or i1 %8, %7
  br i1 %or.cond, label %103, label %9

9:                                                ; preds = %4
  %10 = ptrtoint ptr %6 to i64
  %11 = xor i64 %10, 1
  %12 = inttoptr i64 %11 to ptr
  %13 = icmp eq ptr %3, %12
  br i1 %13, label %103, label %14

14:                                               ; preds = %9
  %15 = getelementptr inbounds nuw i8, ptr %0, i64 48
  %16 = load ptr, ptr %15, align 8, !tbaa !30
  %17 = icmp eq ptr %3, %16
  %18 = ptrtoint ptr %2 to i64
  %19 = xor i64 %18, 1
  %20 = inttoptr i64 %19 to ptr
  %21 = icmp eq ptr %1, %20
  %or.cond116 = or i1 %21, %17
  br i1 %or.cond116, label %103, label %22

22:                                               ; preds = %14
  %23 = icmp ugt ptr %1, %2
  %spec.select = select i1 %23, ptr %1, ptr %2
  %spec.select117 = select i1 %23, ptr %2, ptr %1
  %24 = ptrtoint ptr %spec.select117 to i64
  %25 = and i64 %24, 1
  %.not = icmp eq i64 %25, 0
  %26 = and i64 %24, -2
  %27 = inttoptr i64 %26 to ptr
  %28 = ptrtoint ptr %spec.select to i64
  %29 = xor i64 %28, 1
  %30 = inttoptr i64 %29 to ptr
  %.188 = select i1 %.not, ptr %spec.select, ptr %30
  %.1 = select i1 %.not, ptr %spec.select117, ptr %27
  %31 = tail call ptr @cuddCacheLookup(ptr noundef nonnull %0, i64 noundef 74, ptr noundef %.1, ptr noundef %.188, ptr noundef %3) #10
  %.not107 = icmp eq ptr %31, null
  br i1 %.not107, label %35, label %32

32:                                               ; preds = %22
  %33 = icmp eq ptr %31, %6
  %34 = zext i1 %33 to i32
  br label %103

35:                                               ; preds = %22
  %36 = load i32, ptr %.1, align 8, !tbaa !3
  %37 = icmp eq i32 %36, 2147483647
  br i1 %37, label %44, label %38

38:                                               ; preds = %35
  %39 = getelementptr inbounds nuw i8, ptr %0, i64 312
  %40 = load ptr, ptr %39, align 8, !tbaa !47
  %41 = zext i32 %36 to i64
  %42 = getelementptr inbounds nuw i32, ptr %40, i64 %41
  %43 = load i32, ptr %42, align 4, !tbaa !11
  br label %44

44:                                               ; preds = %35, %38
  %45 = phi i32 [ %43, %38 ], [ 2147483647, %35 ]
  %46 = ptrtoint ptr %.188 to i64
  %47 = and i64 %46, -2
  %48 = inttoptr i64 %47 to ptr
  %49 = load i32, ptr %48, align 8, !tbaa !3
  %50 = icmp eq i32 %49, 2147483647
  %.phi.trans.insert = getelementptr inbounds nuw i8, ptr %0, i64 312
  %.pre = load ptr, ptr %.phi.trans.insert, align 8, !tbaa !47
  br i1 %50, label %._crit_edge, label %51

51:                                               ; preds = %44
  %52 = zext i32 %49 to i64
  %53 = getelementptr inbounds nuw i32, ptr %.pre, i64 %52
  %54 = load i32, ptr %53, align 4, !tbaa !11
  br label %._crit_edge

._crit_edge:                                      ; preds = %44, %51
  %55 = phi i32 [ %54, %51 ], [ 2147483647, %44 ]
  %56 = tail call i32 @llvm.umin.i32(i32 %55, i32 %45)
  %57 = ptrtoint ptr %3 to i64
  %58 = and i64 %57, -2
  %59 = inttoptr i64 %58 to ptr
  %60 = load i32, ptr %59, align 8, !tbaa !3
  %61 = zext i32 %60 to i64
  %62 = getelementptr inbounds nuw i32, ptr %.pre, i64 %61
  %63 = load i32, ptr %62, align 4, !tbaa !11
  %64 = tail call i32 @llvm.umin.i32(i32 %63, i32 %56)
  %65 = icmp eq i32 %64, %45
  br i1 %65, label %66, label %71

66:                                               ; preds = %._crit_edge
  %67 = getelementptr inbounds nuw i8, ptr %.1, i64 16
  %68 = load ptr, ptr %67, align 8, !tbaa !12
  %69 = getelementptr inbounds nuw i8, ptr %.1, i64 24
  %70 = load ptr, ptr %69, align 8, !tbaa !12
  br label %71

71:                                               ; preds = %._crit_edge, %66
  %.095 = phi ptr [ %68, %66 ], [ %.1, %._crit_edge ]
  %.094 = phi ptr [ %70, %66 ], [ %.1, %._crit_edge ]
  %72 = icmp eq i32 %64, %55
  br i1 %72, label %73, label %85

73:                                               ; preds = %71
  %74 = getelementptr inbounds nuw i8, ptr %48, i64 16
  %75 = load ptr, ptr %74, align 8, !tbaa !12
  %76 = getelementptr inbounds nuw i8, ptr %48, i64 24
  %77 = load ptr, ptr %76, align 8, !tbaa !12
  %.not108 = icmp eq ptr %.188, %48
  br i1 %.not108, label %85, label %78

78:                                               ; preds = %73
  %79 = ptrtoint ptr %75 to i64
  %80 = xor i64 %79, 1
  %81 = inttoptr i64 %80 to ptr
  %82 = ptrtoint ptr %77 to i64
  %83 = xor i64 %82, 1
  %84 = inttoptr i64 %83 to ptr
  br label %85

85:                                               ; preds = %71, %73, %78
  %.093 = phi ptr [ %81, %78 ], [ %75, %73 ], [ %.188, %71 ]
  %.092 = phi ptr [ %84, %78 ], [ %77, %73 ], [ %.188, %71 ]
  %.not109 = icmp ugt i32 %63, %56
  br i1 %.not109, label %98, label %86

86:                                               ; preds = %85
  %87 = getelementptr inbounds nuw i8, ptr %59, i64 16
  %88 = load ptr, ptr %87, align 8, !tbaa !12
  %89 = getelementptr inbounds nuw i8, ptr %59, i64 24
  %90 = load ptr, ptr %89, align 8, !tbaa !12
  %.not110 = icmp eq ptr %3, %59
  br i1 %.not110, label %98, label %91

91:                                               ; preds = %86
  %92 = ptrtoint ptr %88 to i64
  %93 = xor i64 %92, 1
  %94 = inttoptr i64 %93 to ptr
  %95 = ptrtoint ptr %90 to i64
  %96 = xor i64 %95, 1
  %97 = inttoptr i64 %96 to ptr
  br label %98

98:                                               ; preds = %85, %86, %91
  %.091 = phi ptr [ %94, %91 ], [ %88, %86 ], [ %3, %85 ]
  %.090 = phi ptr [ %97, %91 ], [ %90, %86 ], [ %3, %85 ]
  %99 = tail call i32 @Cudd_EquivDC(ptr noundef nonnull %0, ptr noundef %.095, ptr noundef %.093, ptr noundef %.091)
  %.not111 = icmp eq i32 %99, 0
  br i1 %.not111, label %.thread, label %100

100:                                              ; preds = %98
  %101 = tail call i32 @Cudd_EquivDC(ptr noundef nonnull %0, ptr noundef %.094, ptr noundef %.092, ptr noundef %.090)
  %.fr = freeze i32 %101
  %.not112 = icmp eq i32 %.fr, 0
  %spec.select123 = select i1 %.not112, ptr %12, ptr %6
  br label %.thread

.thread:                                          ; preds = %100, %98
  %.089121 = phi i32 [ 0, %98 ], [ %.fr, %100 ]
  %102 = phi ptr [ %12, %98 ], [ %spec.select123, %100 ]
  tail call void @cuddCacheInsert(ptr noundef nonnull %0, i64 noundef 74, ptr noundef nonnull %.1, ptr noundef %.188, ptr noundef %3, ptr noundef %102) #10
  br label %103

103:                                              ; preds = %9, %14, %4, %.thread, %32
  %.0 = phi i32 [ %34, %32 ], [ %.089121, %.thread ], [ 1, %4 ], [ 0, %14 ], [ 0, %9 ]
  ret i32 %.0
}